target datalayout = "e-m:e-p270:32:32-p271:32:32-p272:64:64-i64:64-i128:128-f80:128-n8:16:32:64-S128"
target triple = "x86_64-pc-linux-gnu"

%struct.H5FL_blk_head_t = type { i8, i32, i32, i64, ptr, ptr }
%struct.H5FL_blk_node_t = type { i64, i32, i32, ptr, ptr, ptr }

@H5FL_init_g = global i8 0, align 1
@H5_libterm_g = external global i8, align 1

; Function Attrs: nounwind uwtable
define internal ptr @H5FL__blk_find_list(ptr noundef %0, i64 noundef %1) #0 {
  %3 = alloca ptr, align 8
  %4 = alloca i64, align 8
  %5 = alloca ptr, align 8
  store ptr %0, ptr %3, align 8, !tbaa !84
  store i64 %1, ptr %4, align 8, !tbaa !11
  call void @llvm.lifetime.start.p0(i64 8, ptr %5) #9
  store ptr null, ptr %5, align 8, !tbaa !80
  %6 = load i8, ptr @H5FL_init_g, align 1, !tbaa !7, !range !9, !noundef !10
  %7 = trunc i8 %6 to i1
  br i1 %7, label %12, label %8

8:                                                ; preds = %2
  %9 = load i8, ptr @H5_libterm_g, align 1, !tbaa !7, !range !9, !noundef !10
  %10 = trunc i8 %9 to i1
  %11 = xor i1 %10, true
  br label %12

12:                                               ; preds = %8, %2
  %13 = phi i1 [ true, %2 ], [ %11, %8 ]
  %14 = xor i1 %13, true
  %15 = xor i1 %14, true
  %16 = zext i1 %15 to i32
  %17 = sext i32 %16 to i64
  %18 = call i64 @llvm.expect.i64(i64 %17, i64 1)
  %19 = icmp ne i64 %18, 0
  br i1 %19, label %20, label %88

20:                                               ; preds = %12
  %21 = load ptr, ptr %3, align 8, !tbaa !84
  %22 = load ptr, ptr %21, align 8, !tbaa !80
  store ptr %22, ptr %5, align 8, !tbaa !80
  %23 = load ptr, ptr %5, align 8, !tbaa !80
  %24 = icmp ne ptr %23, null
  br i1 %24, label %25, label %87

25:                                               ; preds = %20
  %26 = load ptr, ptr %5, align 8, !tbaa !80
  %27 = getelementptr inbounds nuw %struct.H5FL_blk_node_t, ptr %26, i32 0, i32 0
  %28 = load i64, ptr %27, align 8, !tbaa !86
  %29 = load i64, ptr %4, align 8, !tbaa !11
  %30 = icmp ne i64 %28, %29
  br i1 %30, label %31, label %87

31:                                               ; preds = %25
  %32 = load ptr, ptr %5, align 8, !tbaa !80
  %33 = getelementptr inbounds nuw %struct.H5FL_blk_node_t, ptr %32, i32 0, i32 4
  %34 = load ptr, ptr %33, align 8, !tbaa !87
  store ptr %34, ptr %5, align 8, !tbaa !80
  br label %35

35:                                               ; preds = %82, %31
  %36 = load ptr, ptr %5, align 8, !tbaa !80
  %37 = icmp ne ptr %36, null
  br i1 %37, label %38, label %86

38:                                               ; preds = %35
  %39 = load ptr, ptr %5, align 8, !tbaa !80
  %40 = getelementptr inbounds nuw %struct.H5FL_blk_node_t, ptr %39, i32 0, i32 0
  %41 = load i64, ptr %40, align 8, !tbaa !86
  %42 = load i64, ptr %4, align 8, !tbaa !11
  %43 = icmp eq i64 %41, %42
  br i1 %43, label %44, label %82

44:                                               ; preds = %38
  %45 = load ptr, ptr %5, align 8, !tbaa !80
  %46 = getelementptr inbounds nuw %struct.H5FL_blk_node_t, ptr %45, i32 0, i32 4
  %47 = load ptr, ptr %46, align 8, !tbaa !87
  %48 = icmp eq ptr %47, null
  br i1 %48, label %49, label %54

49:                                               ; preds = %44
  %50 = load ptr, ptr %5, align 8, !tbaa !80
  %51 = getelementptr inbounds nuw %struct.H5FL_blk_node_t, ptr %50, i32 0, i32 5
  %52 = load ptr, ptr %51, align 8, !tbaa !88
  %53 = getelementptr inbounds nuw %struct.H5FL_blk_node_t, ptr %52, i32 0, i32 4
  store ptr null, ptr %53, align 8, !tbaa !87
  br label %69

54:                                               ; preds = %44
  %55 = load ptr, ptr %5, align 8, !tbaa !80
  %56 = getelementptr inbounds nuw %struct.H5FL_blk_node_t, ptr %55, i32 0, i32 4
  %57 = load ptr, ptr %56, align 8, !tbaa !87
  %58 = load ptr, ptr %5, align 8, !tbaa !80
  %59 = getelementptr inbounds nuw %struct.H5FL_blk_node_t, ptr %58, i32 0, i32 5
  %60 = load ptr, ptr %59, align 8, !tbaa !88
  %61 = getelementptr inbounds nuw %struct.H5FL_blk_node_t, ptr %60, i32 0, i32 4
  store ptr %57, ptr %61, align 8, !tbaa !87
  %62 = load ptr, ptr %5, align 8, !tbaa !80
  %63 = getelementptr inbounds nuw %struct.H5FL_blk_node_t, ptr %62, i32 0, i32 5
  %64 = load ptr, ptr %63, align 8, !tbaa !88
  %65 = load ptr, ptr %5, align 8, !tbaa !80
  %66 = getelementptr inbounds nuw %struct.H5FL_blk_node_t, ptr %65, i32 0, i32 4
  %67 = load ptr, ptr %66, align 8, !tbaa !87
  %68 = getelementptr inbounds nuw %struct.H5FL_blk_node_t, ptr %67, i32 0, i32 5
  store ptr %64, ptr %68, align 8, !tbaa !88
  br label %69

69:                                               ; preds = %54, %49
  %70 = load ptr, ptr %5, align 8, !tbaa !80
  %71 = getelementptr inbounds nuw %struct.H5FL_blk_node_t, ptr %70, i32 0, i32 5
  store ptr null, ptr %71, align 8, !tbaa !88
  %72 = load ptr, ptr %3, align 8, !tbaa !84
  %73 = load ptr, ptr %72, align 8, !tbaa !80
  %74 = load ptr, ptr %5, align 8, !tbaa !80
  %75 = getelementptr inbounds nuw %struct.H5FL_blk_node_t, ptr %74, i32 0, i32 4
  store ptr %73, ptr %75, align 8, !tbaa !87
  %76 = load ptr, ptr %5, align 8, !tbaa !80
  %77 = load ptr, ptr %3, align 8, !tbaa !84
  %78 = load ptr, ptr %77, align 8, !tbaa !80
  %79 = getelementptr inbounds nuw %struct.H5FL_blk_node_t, ptr %78, i32 0, i32 5
  store ptr %76, ptr %79, align 8, !tbaa !88
  %80 = load ptr, ptr %5, align 8, !tbaa !80
  %81 = load ptr, ptr %3, align 8, !tbaa !84
  store ptr %80, ptr %81, align 8, !tbaa !80
  br label %86

82:                                               ; preds = %38
  %83 = load ptr, ptr %5, align 8, !tbaa !80
  %84 = getelementptr inbounds nuw %struct.H5FL_blk_node_t, ptr %83, i32 0, i32 4
  %85 = load ptr, ptr %84, align 8, !tbaa !87
  store ptr %85, ptr %5, align 8, !tbaa !80
  br label %35, !llvm.loop !89

86:                                               ; preds = %69, %35
  br label %87

87:                                               ; preds = %86, %25, %20
  br label %88

88:                                               ; preds = %87, %12
  %89 = load ptr, ptr %5, align 8, !tbaa !80
  call void @llvm.lifetime.end.p0(i64 8, ptr %5) #9
  ret ptr %89
}

; Function Attrs: nounwind uwtable
define i32 @H5FL_blk_free_block_avail(ptr noundef %0, i64 noundef %1) #0 {
  %3 = alloca ptr, align 8
  %4 = alloca i64, align 8
  %5 = alloca ptr, align 8
  %6 = alloca i32, align 4
  store ptr %0, ptr %3, align 8, !tbaa !79
  store i64 %1, ptr %4, align 8, !tbaa !11
  call void @llvm.lifetime.start.p0(i64 8, ptr %5) #9
  call void @llvm.lifetime.start.p0(i64 4, ptr %6) #9
  store i32 -1, ptr %6, align 4, !tbaa !3
  %7 = load i8, ptr @H5FL_init_g, align 1, !tbaa !7, !range !9, !noundef !10
  %8 = trunc i8 %7 to i1
  br i1 %8, label %13, label %9

9:                                                ; preds = %2
  %10 = load i8, ptr @H5_libterm_g, align 1, !tbaa !7, !range !9, !noundef !10
  %11 = trunc i8 %10 to i1
  %12 = xor i1 %11, true
  br label %13

13:                                               ; preds = %9, %2
  %14 = phi i1 [ false, %2 ], [ %12, %9 ]
  %15 = xor i1 %14, true
  %16 = xor i1 %15, true
  %17 = zext i1 %16 to i32
  %18 = sext i32 %17 to i64
  %19 = call i64 @llvm.expect.i64(i64 %18, i64 0)
  %20 = icmp ne i64 %19, 0
  br i1 %20, label %21, label %22

21:                                               ; preds = %13
  store i8 1, ptr @H5FL_init_g, align 1, !tbaa !7
  br label %22

22:                                               ; preds = %21, %13
  %23 = load i8, ptr @H5FL_init_g, align 1, !tbaa !7, !range !9, !noundef !10
  %24 = trunc i8 %23 to i1
  br i1 %24, label %29, label %25

25:                                               ; preds = %22
  %26 = load i8, ptr @H5_libterm_g, align 1, !tbaa !7, !range !9, !noundef !10
  %27 = trunc i8 %26 to i1
  %28 = xor i1 %27, true
  br label %29

29:                                               ; preds = %25, %22
  %30 = phi i1 [ true, %22 ], [ %28, %25 ]
  %31 = xor i1 %30, true
  %32 = xor i1 %31, true
  %33 = zext i1 %32 to i32
  %34 = sext i32 %33 to i64
  %35 = call i64 @llvm.expect.i64(i64 %34, i64 1)
  %36 = icmp ne i64 %35, 0
  br i1 %36, label %37, label %51

37:                                               ; preds = %29
  %38 = load ptr, ptr %3, align 8, !tbaa !79
  %39 = getelementptr inbounds nuw %struct.H5FL_blk_head_t, ptr %38, i32 0, i32 5
  %40 = load i64, ptr %4, align 8, !tbaa !11
  %41 = call ptr @H5FL__blk_find_list(ptr noundef %39, i64 noundef %40)
  store ptr %41, ptr %5, align 8, !tbaa !80
  %42 = icmp ne ptr %41, null
  br i1 %42, label %43, label %49

43:                                               ; preds = %37
  %44 = load ptr, ptr %5, align 8, !tbaa !80
  %45 = getelementptr inbounds nuw %struct.H5FL_blk_node_t, ptr %44, i32 0, i32 3
  %46 = load ptr, ptr %45, align 8, !tbaa !81
  %47 = icmp ne ptr %46, null
  br i1 %47, label %48, label %49

48:                                               ; preds = %43
  store i32 1, ptr %6, align 4, !tbaa !3
  br label %50

49:                                               ; preds = %43, %37
  store i32 0, ptr %6, align 4, !tbaa !3
  br label %50

50:                                               ; preds = %49, %48
  br label %51

51:                                               ; preds = %50, %29
  %52 = load i32, ptr %6, align 4, !tbaa !3
  call void @llvm.lifetime.end.p0(i64 4, ptr %6) #9
  call void @llvm.lifetime.end.p0(i64 8, ptr %5) #9
  ret i32 %52
}