; Function Attrs: nofree norecurse nosync nounwind memory(readwrite, inaccessiblemem: none) uwtable
define range(i32 -1, 2) i32 @H5FL_blk_free_block_avail(ptr noundef captures(none) %0, i64 noundef %1) local_unnamed_addr #3 {
  %3 = load i8, ptr @H5FL_init_g, align 1, !tbaa !3, !range !7, !noundef !8
  %4 = trunc nuw i8 %3 to i1
  %5 = load i8, ptr @H5_libterm_g, align 1, !range !7
  %6 = trunc nuw i8 %5 to i1
  %7 = select i1 %4, i1 true, i1 %6
  br i1 %7, label %8, label %.thread, !prof !15

.thread:                                          ; preds = %2
  store i8 1, ptr @H5FL_init_g, align 1, !tbaa !3
  br label %11

8:                                                ; preds = %2
  %9 = xor i1 %6, true
  %10 = select i1 %4, i1 true, i1 %9
  br i1 %10, label %11, label %35, !prof !63

11:                                               ; preds = %8, %.thread
  %12 = getelementptr inbounds nuw i8, ptr %0, i64 32
  %13 = load ptr, ptr %12, align 8, !tbaa !88
  %.not.i = icmp eq ptr %13, null
  br i1 %.not.i, label %H5FL__blk_find_list.exit.thread, label %14

14:                                               ; preds = %11
  %15 = load i64, ptr %13, align 8, !tbaa !89
  %.not26.i = icmp eq i64 %15, %1
  br i1 %.not26.i, label %H5FL__blk_find_list.exit, label %.preheader.i

.preheader.i:                                     ; preds = %14, %16
  %.pn.i = phi ptr [ %.1.i, %16 ], [ %13, %14 ]
  %.1.in.i = getelementptr inbounds nuw i8, ptr %.pn.i, i64 24
  %.1.i = load ptr, ptr %.1.in.i, align 8, !tbaa !92
  %.not27.i = icmp eq ptr %.1.i, null
  br i1 %.not27.i, label %H5FL__blk_find_list.exit.thread, label %16

16:                                               ; preds = %.preheader.i
  %17 = load i64, ptr %.1.i, align 8, !tbaa !89
  %18 = icmp eq i64 %17, %1
  br i1 %18, label %19, label %.preheader.i, !llvm.loop !93

19:                                               ; preds = %16
  %20 = getelementptr inbounds nuw i8, ptr %.1.i, i64 24
  %21 = load ptr, ptr %20, align 8, !tbaa !92
  %22 = icmp eq ptr %21, null
  %23 = getelementptr inbounds nuw i8, ptr %.1.i, i64 32
  %24 = load ptr, ptr %23, align 8, !tbaa !94
  %25 = getelementptr inbounds nuw i8, ptr %24, i64 24
  br i1 %22, label %26, label %27

26:                                               ; preds = %19
  store ptr null, ptr %25, align 8, !tbaa !92
  br label %30

27:                                               ; preds = %19
  store ptr %21, ptr %25, align 8, !tbaa !92
  %28 = load ptr, ptr %20, align 8, !tbaa !92
  %29 = getelementptr inbounds nuw i8, ptr %28, i64 32
  store ptr %24, ptr %29, align 8, !tbaa !94
  br label %30

30:                                               ; preds = %27, %26
  store ptr null, ptr %23, align 8, !tbaa !94
  %31 = load ptr, ptr %12, align 8, !tbaa !88
  store ptr %31, ptr %20, align 8, !tbaa !92
  %32 = getelementptr inbounds nuw i8, ptr %31, i64 32
  store ptr %.1.i, ptr %32, align 8, !tbaa !94
  store ptr %.1.i, ptr %12, align 8, !tbaa !88
  br label %H5FL__blk_find_list.exit

H5FL__blk_find_list.exit:                         ; preds = %30, %14
  %.0.i = phi ptr [ %.1.i, %30 ], [ %13, %14 ]
  %33 = getelementptr inbounds nuw i8, ptr %.0.i, i64 16
  %34 = load ptr, ptr %33, align 8, !tbaa !95
  %.not4 = icmp eq ptr %34, null
  br i1 %.not4, label %H5FL__blk_find_list.exit.thread, label %35

H5FL__blk_find_list.exit.thread:                  ; preds = %.preheader.i, %11, %H5FL__blk_find_list.exit
  br label %35

35:                                               ; preds = %H5FL__blk_find_list.exit, %H5FL__blk_find_list.exit.thread, %8
  %.0 = phi i32 [ 0, %H5FL__blk_find_list.exit.thread ], [ -1, %8 ], [ 1, %H5FL__blk_find_list.exit ]
  ret i32 %.0
}